; Function Attrs: inlinehint mustprogress nofree norecurse nosync nounwind optsize willreturn memory(readwrite, inaccessiblemem: none) uwtable
define internal noundef ptr @_ZZN8nanobind6detail11func_createILb0ELb1EZNS0_18make_iterator_implINS0_15iterator_accessIN9__gnu_cxx17__normal_iteratorIPSt6vectorIZL38nanobind_init_test_stl_bind_vector_extRNS_7module_EE2ElSaIS9_EES6_ISB_SaISB_EEEEEELNS_9rv_policyE1ESF_SF_RSB_JEEENS_5typedINS_8iteratorEJT3_EEENS_6handleEPKcT1_T2_DpOT4_EUlSN_E_SN_JSN_EJLm0EEJNS_5scopeENS_4nameENS_9is_methodEEEEP7_objectOSQ_PFSR_DpT3_ESt16integer_sequenceImJXspT4_EEEDpRKT5_ENUlPvPS10_PhSH_PNS0_12cleanup_listEE_8__invokeES1C_S1D_S1E_SH_S1G_(ptr readnone captures(none) %0, ptr noundef readonly captures(none) %1, ptr readonly captures(none) %2, i32 %3, ptr readnone captures(none) %4) #17 align 2 personality ptr @__gxx_personality_v0 {
  %6 = load ptr, ptr %1, align 8, !tbaa !89
  %.not.i.i.i = icmp eq ptr %6, null
  br i1 %.not.i.i.i, label %_ZZN8nanobind6detail11func_createILb0ELb1EZNS0_18make_iterator_implINS0_15iterator_accessIN9__gnu_cxx17__normal_iteratorIPSt6vectorIZL38nanobind_init_test_stl_bind_vector_extRNS_7module_EE2ElSaIS9_EES6_ISB_SaISB_EEEEEELNS_9rv_policyE1ESF_SF_RSB_JEEENS_5typedINS_8iteratorEJT3_EEENS_6handleEPKcT1_T2_DpOT4_EUlSN_E_SN_JSN_EJLm0EEJNS_5scopeENS_4nameENS_9is_methodEEEEP7_objectOSQ_PFSR_DpT3_ESt16integer_sequenceImJXspT4_EEEDpRKT5_ENKUlPvPS10_PhSH_PNS0_12cleanup_listEE_clES1C_S1D_S1E_SH_S1G_.exit, label %7

7:                                                ; preds = %5
  %8 = load i64, ptr %6, align 8, !tbaa !41
  %9 = add nsw i64 %8, 1
  store i64 %9, ptr %6, align 8, !tbaa !41
  br label %_ZZN8nanobind6detail11func_createILb0ELb1EZNS0_18make_iterator_implINS0_15iterator_accessIN9__gnu_cxx17__normal_iteratorIPSt6vectorIZL38nanobind_init_test_stl_bind_vector_extRNS_7module_EE2ElSaIS9_EES6_ISB_SaISB_EEEEEELNS_9rv_policyE1ESF_SF_RSB_JEEENS_5typedINS_8iteratorEJT3_EEENS_6handleEPKcT1_T2_DpOT4_EUlSN_E_SN_JSN_EJLm0EEJNS_5scopeENS_4nameENS_9is_methodEEEEP7_objectOSQ_PFSR_DpT3_ESt16integer_sequenceImJXspT4_EEEDpRKT5_ENKUlPvPS10_PhSH_PNS0_12cleanup_listEE_clES1C_S1D_S1E_SH_S1G_.exit

_ZZN8nanobind6detail11func_createILb0ELb1EZNS0_18make_iterator_implINS0_15iterator_accessIN9__gnu_cxx17__normal_iteratorIPSt6vectorIZL38nanobind_init_test_stl_bind_vector_extRNS_7module_EE2ElSaIS9_EES6_ISB_SaISB_EEEEEELNS_9rv_policyE1ESF_SF_RSB_JEEENS_5typedINS_8iteratorEJT3_EEENS_6handleEPKcT1_T2_DpOT4_EUlSN_E_SN_JSN_EJLm0EEJNS_5scopeENS_4nameENS_9is_methodEEEEP7_objectOSQ_PFSR_DpT3_ESt16integer_sequenceImJXspT4_EEEDpRKT5_ENKUlPvPS10_PhSH_PNS0_12cleanup_listEE_clES1C_S1D_S1E_SH_S1G_.exit: ; preds = %7, %5
  ret ptr %6
}